; Function Attrs: nounwind uwtable
define internal fastcc void @llvm_emit_dynamic_method_addr(ptr noundef %0, ptr noundef %1, ptr nocapture noundef readonly %2) unnamed_addr #0 {
  %4 = getelementptr inbounds i8, ptr %2, i64 24
  %5 = load ptr, ptr %4, align 8
  tail call void @llvm_emit_expr(ptr noundef %0, ptr noundef %1, ptr noundef %5)
  tail call fastcc void @llvm_emit_type_from_any(ptr noundef %0, ptr noundef %1)
  tail call void @llvm_value_rvalue(ptr noundef %0, ptr noundef %1) #10
  %6 = getelementptr inbounds i8, ptr %0, i64 64
  %7 = load ptr, ptr %6, align 8
  %8 = getelementptr inbounds i8, ptr %1, i64 16
  %9 = load ptr, ptr %8, align 8
  %10 = getelementptr inbounds i8, ptr %0, i64 216
  %11 = load ptr, ptr %10, align 8
  %12 = tail call ptr @LLVMBuildIntToPtr(ptr noundef %7, ptr noundef %9, ptr noundef %11, ptr noundef nonnull @.str.3) #10
  %13 = getelementptr inbounds i8, ptr %2, i64 32
  %14 = load ptr, ptr %13, align 8
  %15 = tail call ptr @llvm_get_ref(ptr noundef %0, ptr noundef %14) #10
  %16 = tail call fastcc ptr @llvm_emit_dynamic_search(ptr noundef %0, ptr noundef %12, ptr noundef %15)
  %17 = getelementptr inbounds i8, ptr %14, i64 72
  %18 = load ptr, ptr %17, align 8
  %19 = tail call ptr @type_get_ptr(ptr noundef %18) #10
  tail call void @llvm_value_set(ptr noundef %1, ptr noundef %16, ptr noundef %19) #10
  ret void
}